target datalayout = "e-m:e-p270:32:32-p271:32:32-p272:64:64-i64:64-i128:128-f80:128-n8:16:32:64-S128"
target triple = "x86_64-pc-linux-gnu"

@PyExc_AssertionError = external global ptr, align 8
@__const.test_widechar.wtext = private unnamed_addr constant [2 x i32] [i32 1092557, i32 0], align 4
@__const.test_widechar.invalid = private unnamed_addr constant [1 x i32] [i32 1114112], align 4
@.str.352 = private unnamed_addr constant [5 x i8] c"\F4\8A\AF\8D\00", align 1
@.str.353 = private unnamed_addr constant [65 x i8] c"test_widechar: wide string and utf8 string have different length\00", align 1
@.str.354 = private unnamed_addr constant [57 x i8] c"test_widechar: wide string and utf8 string are different\00", align 1
@.str.355 = private unnamed_addr constant [68 x i8] c"test_widechar: PyUnicode_FromWideChar(L\22\\U00110000\22, 1) didn't fail\00", align 1

; Function Attrs: inlinehint nounwind uwtable
define internal void @Py_DECREF(ptr noundef %0) #3 {
  %2 = alloca ptr, align 8
  store ptr %0, ptr %2, align 8, !tbaa !3
  %3 = load ptr, ptr %2, align 8, !tbaa !3
  call void @_Py_DecRef(ptr noundef %3)
  ret void
}

; Function Attrs: nounwind uwtable
define internal ptr @test_widechar(ptr noundef %0, ptr noundef %1) #0 {
  %3 = alloca ptr, align 8
  %4 = alloca ptr, align 8
  %5 = alloca ptr, align 8
  %6 = alloca [2 x i32], align 4
  %7 = alloca i64, align 8
  %8 = alloca [1 x i32], align 4
  %9 = alloca ptr, align 8
  %10 = alloca ptr, align 8
  %11 = alloca i32, align 4
  store ptr %0, ptr %4, align 8, !tbaa !3
  store ptr %1, ptr %5, align 8, !tbaa !3
  call void @llvm.lifetime.start.p0(i64 8, ptr %6) #7
  call void @llvm.memcpy.p0.p0.i64(ptr align 4 %6, ptr align 4 @__const.test_widechar.wtext, i64 8, i1 false)
  call void @llvm.lifetime.start.p0(i64 8, ptr %7) #7
  store i64 1, ptr %7, align 8, !tbaa !12
  call void @llvm.lifetime.start.p0(i64 4, ptr %8) #7
  call void @llvm.memcpy.p0.p0.i64(ptr align 4 %8, ptr align 4 @__const.test_widechar.invalid, i64 4, i1 false)
  call void @llvm.lifetime.start.p0(i64 8, ptr %9) #7
  call void @llvm.lifetime.start.p0(i64 8, ptr %10) #7
  %12 = getelementptr inbounds [2 x i32], ptr %6, i64 0, i64 0
  %13 = load i64, ptr %7, align 8, !tbaa !12
  %14 = call ptr @PyUnicode_FromWideChar(ptr noundef %12, i64 noundef %13)
  store ptr %14, ptr %9, align 8, !tbaa !3
  %15 = load ptr, ptr %9, align 8, !tbaa !3
  %16 = icmp eq ptr %15, null
  br i1 %16, label %17, label %18

17:                                               ; preds = %2
  store ptr null, ptr %3, align 8
  store i32 1, ptr %11, align 4
  br label %59

18:                                               ; preds = %2
  %19 = call ptr @PyUnicode_FromString(ptr noundef @.str.352)
  store ptr %19, ptr %10, align 8, !tbaa !3
  %20 = load ptr, ptr %10, align 8, !tbaa !3
  %21 = icmp eq ptr %20, null
  br i1 %21, label %22, label %24

22:                                               ; preds = %18
  %23 = load ptr, ptr %9, align 8, !tbaa !3
  call void @Py_DECREF(ptr noundef %23)
  store ptr null, ptr %3, align 8
  store i32 1, ptr %11, align 4
  br label %59

24:                                               ; preds = %18
  %25 = load ptr, ptr %9, align 8, !tbaa !3
  %26 = call i64 @PyUnicode_GetLength(ptr noundef %25)
  %27 = load ptr, ptr %10, align 8, !tbaa !3
  %28 = call i64 @PyUnicode_GetLength(ptr noundef %27)
  %29 = icmp ne i64 %26, %28
  br i1 %29, label %30, label %34

30:                                               ; preds = %24
  %31 = load ptr, ptr %9, align 8, !tbaa !3
  call void @Py_DECREF(ptr noundef %31)
  %32 = load ptr, ptr %10, align 8, !tbaa !3
  call void @Py_DECREF(ptr noundef %32)
  %33 = load ptr, ptr @PyExc_AssertionError, align 8, !tbaa !3
  call void @PyErr_SetString(ptr noundef %33, ptr noundef @.str.353)
  store ptr null, ptr %3, align 8
  store i32 1, ptr %11, align 4
  br label %59

34:                                               ; preds = %24
  %35 = load ptr, ptr %9, align 8, !tbaa !3
  %36 = load ptr, ptr %10, align 8, !tbaa !3
  %37 = call i32 @PyUnicode_Compare(ptr noundef %35, ptr noundef %36)
  %38 = icmp ne i32 %37, 0
  br i1 %38, label %39, label %47

39:                                               ; preds = %34
  %40 = load ptr, ptr %9, align 8, !tbaa !3
  call void @Py_DECREF(ptr noundef %40)
  %41 = load ptr, ptr %10, align 8, !tbaa !3
  call void @Py_DECREF(ptr noundef %41)
  %42 = call ptr @PyErr_Occurred()
  %43 = icmp ne ptr %42, null
  br i1 %43, label %44, label %45

44:                                               ; preds = %39
  store ptr null, ptr %3, align 8
  store i32 1, ptr %11, align 4
  br label %59

45:                                               ; preds = %39
  %46 = load ptr, ptr @PyExc_AssertionError, align 8, !tbaa !3
  call void @PyErr_SetString(ptr noundef %46, ptr noundef @.str.354)
  store ptr null, ptr %3, align 8
  store i32 1, ptr %11, align 4
  br label %59

47:                                               ; preds = %34
  %48 = load ptr, ptr %9, align 8, !tbaa !3
  call void @Py_DECREF(ptr noundef %48)
  %49 = load ptr, ptr %10, align 8, !tbaa !3
  call void @Py_DECREF(ptr noundef %49)
  %50 = getelementptr inbounds [1 x i32], ptr %8, i64 0, i64 0
  %51 = call ptr @PyUnicode_FromWideChar(ptr noundef %50, i64 noundef 1)
  store ptr %51, ptr %9, align 8, !tbaa !3
  %52 = load ptr, ptr %9, align 8, !tbaa !3
  %53 = icmp eq ptr %52, null
  br i1 %53, label %54, label %55

54:                                               ; preds = %47
  call void @PyErr_Clear()
  br label %57

55:                                               ; preds = %47
  %56 = load ptr, ptr @PyExc_AssertionError, align 8, !tbaa !3
  call void @PyErr_SetString(ptr noundef %56, ptr noundef @.str.355)
  store ptr null, ptr %3, align 8
  store i32 1, ptr %11, align 4
  br label %59

57:                                               ; preds = %54
  %58 = call ptr @Py_GetConstantBorrowed(i32 noundef 0)
  store ptr %58, ptr %3, align 8
  store i32 1, ptr %11, align 4
  br label %59

59:                                               ; preds = %57, %55, %45, %44, %30, %22, %17
  call void @llvm.lifetime.end.p0(i64 8, ptr %10) #7
  call void @llvm.lifetime.end.p0(i64 8, ptr %9) #7
  call void @llvm.lifetime.end.p0(i64 4, ptr %8) #7
  call void @llvm.lifetime.end.p0(i64 8, ptr %7) #7
  call void @llvm.lifetime.end.p0(i64 8, ptr %6) #7
  %60 = load ptr, ptr %3, align 8
  ret ptr %60
}