; Function Attrs: nounwind uwtable
define internal ptr @test_widechar(ptr readnone captures(none) %0, ptr readnone captures(none) %1) #0 {
  %3 = alloca [2 x i32], align 8
  %4 = alloca [1 x i32], align 4
  call void @llvm.lifetime.start.p0(i64 8, ptr nonnull %3) #4
  store i64 1092557, ptr %3, align 8
  call void @llvm.lifetime.start.p0(i64 4, ptr nonnull %4) #4
  store i32 1114112, ptr %4, align 4
  %5 = call ptr @PyUnicode_FromWideChar(ptr noundef nonnull %3, i64 noundef 1) #4
  %6 = icmp eq ptr %5, null
  br i1 %6, label %29, label %7

7:                                                ; preds = %2
  %8 = call ptr @PyUnicode_FromString(ptr noundef nonnull @.str.352) #4
  %9 = icmp eq ptr %8, null
  br i1 %9, label %10, label %11

10:                                               ; preds = %7
  call void @_Py_DecRef(ptr noundef nonnull %5) #4
  br label %29

11:                                               ; preds = %7
  %12 = call i64 @PyUnicode_GetLength(ptr noundef nonnull %5) #4
  %13 = call i64 @PyUnicode_GetLength(ptr noundef nonnull %8) #4
  %.not = icmp eq i64 %12, %13
  br i1 %.not, label %16, label %14

14:                                               ; preds = %11
  call void @_Py_DecRef(ptr noundef nonnull %5) #4
  call void @_Py_DecRef(ptr noundef nonnull %8) #4
  %15 = load ptr, ptr @PyExc_AssertionError, align 8, !tbaa !8
  call void @PyErr_SetString(ptr noundef %15, ptr noundef nonnull @.str.353) #4
  br label %29

16:                                               ; preds = %11
  %17 = call i32 @PyUnicode_Compare(ptr noundef nonnull %5, ptr noundef nonnull %8) #4
  %.not17 = icmp eq i32 %17, 0
  call void @_Py_DecRef(ptr noundef nonnull %5) #4
  call void @_Py_DecRef(ptr noundef nonnull %8) #4
  br i1 %.not17, label %22, label %18

18:                                               ; preds = %16
  %19 = call ptr @PyErr_Occurred() #4
  %.not18 = icmp eq ptr %19, null
  br i1 %.not18, label %20, label %29

20:                                               ; preds = %18
  %21 = load ptr, ptr @PyExc_AssertionError, align 8, !tbaa !8
  call void @PyErr_SetString(ptr noundef %21, ptr noundef nonnull @.str.354) #4
  br label %29

22:                                               ; preds = %16
  %23 = call ptr @PyUnicode_FromWideChar(ptr noundef nonnull %4, i64 noundef 1) #4
  %24 = icmp eq ptr %23, null
  br i1 %24, label %25, label %27

25:                                               ; preds = %22
  call void @PyErr_Clear() #4
  %26 = call ptr @Py_GetConstantBorrowed(i32 noundef 0) #4
  br label %29

27:                                               ; preds = %22
  %28 = load ptr, ptr @PyExc_AssertionError, align 8, !tbaa !8
  call void @PyErr_SetString(ptr noundef %28, ptr noundef nonnull @.str.355) #4
  br label %29

29:                                               ; preds = %18, %2, %25, %27, %20, %14, %10
  %.0 = phi ptr [ null, %10 ], [ null, %14 ], [ null, %20 ], [ %26, %25 ], [ null, %27 ], [ null, %2 ], [ null, %18 ]
  call void @llvm.lifetime.end.p0(i64 4, ptr nonnull %4) #4
  call void @llvm.lifetime.end.p0(i64 8, ptr nonnull %3) #4
  ret ptr %.0
}